; Function Attrs: mustprogress nounwind uwtable
define dso_local void @_ZN4llvm19PseudoProbeVerifier19collectProbeFactorsEPKNS_10BasicBlockERSt13unordered_mapISt4pairImmEfNS_9pair_hashImmEESt8equal_toIS6_ESaIS5_IKS6_fEEE(ptr noundef nonnull readnone align 8 captures(none) dereferenceable(24) %0, ptr noundef readonly %1, ptr noundef nonnull align 8 dereferenceable(56) %2) local_unnamed_addr #0 align 2 {
  %4 = alloca %"class.std::optional.223", align 4
  %5 = alloca %"struct.std::pair", align 8
  %6 = getelementptr inbounds nuw i8, ptr %1, i64 56
  %7 = getelementptr inbounds nuw i8, ptr %1, i64 48
  %.sroa.012.015 = load ptr, ptr %6, align 8
  %.not16 = icmp eq ptr %.sroa.012.015, %7
  br i1 %.not16, label %._crit_edge, label %.lr.ph

.lr.ph:                                           ; preds = %3
  %8 = getelementptr inbounds nuw i8, ptr %4, i64 20
  %9 = getelementptr inbounds nuw i8, ptr %4, i64 16
  %10 = getelementptr inbounds nuw i8, ptr %5, i64 8
  br label %11

11:                                               ; preds = %.lr.ph, %25
  %.sroa.012.017 = phi ptr [ %.sroa.012.015, %.lr.ph ], [ %.sroa.012.0, %25 ]
  %12 = icmp eq ptr %.sroa.012.017, null
  %13 = getelementptr inbounds i8, ptr %.sroa.012.017, i64 -24
  %14 = select i1 %12, ptr null, ptr %13
  call void @_ZN4llvm12extractProbeERKNS_11InstructionE(ptr dead_on_unwind nonnull writable sret(%"class.std::optional.223") align 4 %4, ptr noundef nonnull align 8 dereferenceable(72) %14) #21
  %15 = load i8, ptr %8, align 4
  %16 = trunc i8 %15 to i1
  br i1 %16, label %17, label %25

17:                                               ; preds = %11
  %18 = call fastcc noundef i64 @_ZL20computeCallStackHashRKN4llvm11InstructionE(ptr noundef nonnull align 8 dereferenceable(72) %14)
  %19 = load float, ptr %9, align 4
  %20 = load i32, ptr %4, align 4
  %21 = zext i32 %20 to i64
  store i64 %21, ptr %5, align 8
  store i64 %18, ptr %10, align 8
  %22 = call noundef nonnull align 4 dereferenceable(4) ptr @_ZNSt8__detail9_Map_baseISt4pairImmES1_IKS2_fESaIS4_ENS_10_Select1stESt8equal_toIS2_EN4llvm9pair_hashImmEENS_18_Mod_range_hashingENS_20_Default_ranged_hashENS_20_Prime_rehash_policyENS_17_Hashtable_traitsILb1ELb0ELb1EEELb1EEixEOS2_(ptr noundef nonnull align 8 dereferenceable(56) %2, ptr noundef nonnull align 8 dereferenceable(16) %5)
  %23 = load float, ptr %22, align 4
  %24 = fadd float %19, %23
  store float %24, ptr %22, align 4
  br label %25

25:                                               ; preds = %11, %17
  %26 = getelementptr inbounds nuw i8, ptr %.sroa.012.017, i64 8
  %.sroa.012.0 = load ptr, ptr %26, align 8
  %.not = icmp eq ptr %.sroa.012.0, %7
  br i1 %.not, label %._crit_edge, label %11

._crit_edge:                                      ; preds = %25, %3
  ret void
}